target datalayout = "e-m:e-p270:32:32-p271:32:32-p272:64:64-i64:64-i128:128-f80:128-n8:16:32:64-S128"
target triple = "x86_64-pc-linux-gnu"

%struct.group = type { ptr, ptr, i32, ptr }

@sGroup = internal global i64 0, align 8
@.str.216 = private unnamed_addr constant [1 x i8] zeroinitializer, align 1

; Function Attrs: inlinehint nounwind sspstrong willreturn memory(none) uwtable
define internal i64 @RB_INT2FIX(i64 noundef %0) #5 {
  %2 = alloca i64, align 8
  %3 = alloca i64, align 8
  %4 = alloca i64, align 8
  %5 = alloca i64, align 8
  %6 = alloca i64, align 8
  %7 = alloca i64, align 8
  store i64 %0, ptr %2, align 8, !tbaa !6
  call void @llvm.lifetime.start.p0(i64 8, ptr %3) #19
  %8 = load i64, ptr %2, align 8, !tbaa !6
  store i64 %8, ptr %3, align 8, !tbaa !6
  call void @llvm.lifetime.start.p0(i64 8, ptr %4) #19
  %9 = load i64, ptr %3, align 8, !tbaa !6
  %10 = shl i64 %9, 1
  %11 = add i64 %10, 1
  store i64 %11, ptr %4, align 8, !tbaa !6
  call void @llvm.lifetime.start.p0(i64 8, ptr %5) #19
  %12 = load i64, ptr %4, align 8, !tbaa !6
  store i64 %12, ptr %5, align 8, !tbaa !6
  call void @llvm.lifetime.start.p0(i64 8, ptr %6) #19
  %13 = load i64, ptr %5, align 8, !tbaa !6
  store i64 %13, ptr %6, align 8, !tbaa !6
  call void @llvm.lifetime.start.p0(i64 8, ptr %7) #19
  %14 = load i64, ptr %6, align 8, !tbaa !6
  store i64 %14, ptr %7, align 8, !tbaa !6
  %15 = load i64, ptr %7, align 8, !tbaa !6
  call void @llvm.lifetime.end.p0(i64 8, ptr %7) #19
  call void @llvm.lifetime.end.p0(i64 8, ptr %6) #19
  call void @llvm.lifetime.end.p0(i64 8, ptr %5) #19
  call void @llvm.lifetime.end.p0(i64 8, ptr %4) #19
  call void @llvm.lifetime.end.p0(i64 8, ptr %3) #19
  ret i64 %15
}

; Function Attrs: inlinehint nounwind sspstrong uwtable
define internal i64 @rb_uint2num_inline(i32 noundef %0) #3 {
  %2 = alloca i64, align 8
  %3 = alloca i32, align 4
  store i32 %0, ptr %3, align 4, !tbaa !15
  %4 = load i32, ptr %3, align 4, !tbaa !15
  %5 = zext i32 %4 to i64
  %6 = icmp slt i64 %5, 4611686018427387904
  br i1 %6, label %7, label %11

7:                                                ; preds = %1
  %8 = load i32, ptr %3, align 4, !tbaa !15
  %9 = zext i32 %8 to i64
  %10 = call i64 @RB_INT2FIX(i64 noundef %9) #20
  store i64 %10, ptr %2, align 8
  br label %15

11:                                               ; preds = %1
  %12 = load i32, ptr %3, align 4, !tbaa !15
  %13 = zext i32 %12 to i64
  %14 = call i64 @rb_uint2big(i64 noundef %13)
  store i64 %14, ptr %2, align 8
  br label %15

15:                                               ; preds = %11, %7
  %16 = load i64, ptr %2, align 8
  ret i64 %16
}

; Function Attrs: nounwind sspstrong uwtable
define internal i64 @safe_setup_str(ptr noundef %0) #0 {
  %2 = alloca ptr, align 8
  store ptr %0, ptr %2, align 8, !tbaa !10
  %3 = load ptr, ptr %2, align 8, !tbaa !10
  %4 = icmp eq ptr %3, null
  br i1 %4, label %5, label %6

5:                                                ; preds = %1
  store ptr @.str.216, ptr %2, align 8, !tbaa !10
  br label %6

6:                                                ; preds = %5, %1
  %7 = load ptr, ptr %2, align 8, !tbaa !10
  %8 = call i64 @rb_str_new_cstr(ptr noundef %7)
  ret i64 %8
}

; Function Attrs: nounwind sspstrong uwtable
define internal i64 @safe_setup_locale_str(ptr noundef %0) #0 {
  %2 = alloca ptr, align 8
  store ptr %0, ptr %2, align 8, !tbaa !10
  %3 = load ptr, ptr %2, align 8, !tbaa !10
  %4 = icmp eq ptr %3, null
  br i1 %4, label %5, label %6

5:                                                ; preds = %1
  store ptr @.str.216, ptr %2, align 8, !tbaa !10
  br label %6

6:                                                ; preds = %5, %1
  %7 = load ptr, ptr %2, align 8, !tbaa !10
  %8 = call i64 @rb_locale_str_new_cstr(ptr noundef %7)
  ret i64 %8
}

; Function Attrs: nounwind sspstrong uwtable
define internal i64 @setup_group(ptr noundef %0) #0 {
  %2 = alloca ptr, align 8
  %3 = alloca i64, align 8
  %4 = alloca ptr, align 8
  store ptr %0, ptr %2, align 8, !tbaa !21
  call void @llvm.lifetime.start.p0(i64 8, ptr %3) #19
  call void @llvm.lifetime.start.p0(i64 8, ptr %4) #19
  %5 = call i64 @rb_ary_new()
  store i64 %5, ptr %3, align 8, !tbaa !6
  %6 = load ptr, ptr %2, align 8, !tbaa !21
  %7 = getelementptr inbounds nuw %struct.group, ptr %6, i32 0, i32 3
  %8 = load ptr, ptr %7, align 8, !tbaa !47
  store ptr %8, ptr %4, align 8, !tbaa !50
  br label %9

9:                                                ; preds = %13, %1
  %10 = load ptr, ptr %4, align 8, !tbaa !50
  %11 = load ptr, ptr %10, align 8, !tbaa !10
  %12 = icmp ne ptr %11, null
  br i1 %12, label %13, label %21

13:                                               ; preds = %9
  %14 = load i64, ptr %3, align 8, !tbaa !6
  %15 = load ptr, ptr %4, align 8, !tbaa !50
  %16 = load ptr, ptr %15, align 8, !tbaa !10
  %17 = call i64 @safe_setup_locale_str(ptr noundef %16)
  %18 = call i64 @rb_ary_push(i64 noundef %14, i64 noundef %17)
  %19 = load ptr, ptr %4, align 8, !tbaa !50
  %20 = getelementptr inbounds nuw ptr, ptr %19, i32 1
  store ptr %20, ptr %4, align 8, !tbaa !50
  br label %9, !llvm.loop !51

21:                                               ; preds = %9
  %22 = load i64, ptr @sGroup, align 8, !tbaa !6
  %23 = load ptr, ptr %2, align 8, !tbaa !21
  %24 = getelementptr inbounds nuw %struct.group, ptr %23, i32 0, i32 0
  %25 = load ptr, ptr %24, align 8, !tbaa !52
  %26 = call i64 @safe_setup_locale_str(ptr noundef %25)
  %27 = load ptr, ptr %2, align 8, !tbaa !21
  %28 = getelementptr inbounds nuw %struct.group, ptr %27, i32 0, i32 1
  %29 = load ptr, ptr %28, align 8, !tbaa !53
  %30 = call i64 @safe_setup_str(ptr noundef %29)
  %31 = load ptr, ptr %2, align 8, !tbaa !21
  %32 = getelementptr inbounds nuw %struct.group, ptr %31, i32 0, i32 2
  %33 = load i32, ptr %32, align 8, !tbaa !54
  %34 = call i64 @rb_uint2num_inline(i32 noundef %33)
  %35 = load i64, ptr %3, align 8, !tbaa !6
  %36 = call i64 (i64, ...) @rb_struct_new(i64 noundef %22, i64 noundef %26, i64 noundef %30, i64 noundef %34, i64 noundef %35)
  call void @llvm.lifetime.end.p0(i64 8, ptr %4) #19
  call void @llvm.lifetime.end.p0(i64 8, ptr %3) #19
  ret i64 %36
}