; Function Attrs: nounwind sspstrong uwtable
define internal fastcc i64 @setup_group(ptr noundef nonnull readonly captures(none) %0) unnamed_addr #0 {
  %2 = tail call i64 @rb_ary_new() #13
  %3 = getelementptr inbounds nuw i8, ptr %0, i64 24
  %4 = load ptr, ptr %3, align 8, !tbaa !25
  %5 = load ptr, ptr %4, align 8, !tbaa !28
  %.not11 = icmp eq ptr %5, null
  br i1 %.not11, label %._crit_edge, label %.lr.ph

.lr.ph:                                           ; preds = %1, %.lr.ph
  %6 = phi ptr [ %10, %.lr.ph ], [ %5, %1 ]
  %.012 = phi ptr [ %9, %.lr.ph ], [ %4, %1 ]
  %7 = tail call i64 @rb_locale_str_new_cstr(ptr noundef nonnull %6) #13
  %8 = tail call i64 @rb_ary_push(i64 noundef %2, i64 noundef %7) #13
  %9 = getelementptr inbounds nuw i8, ptr %.012, i64 8
  %10 = load ptr, ptr %9, align 8, !tbaa !28
  %.not = icmp eq ptr %10, null
  br i1 %.not, label %._crit_edge, label %.lr.ph, !llvm.loop !29

._crit_edge:                                      ; preds = %.lr.ph, %1
  %11 = load i64, ptr @sGroup, align 8, !tbaa !6
  %12 = load ptr, ptr %0, align 8, !tbaa !30
  %13 = icmp eq ptr %12, null
  %spec.store.select.i9 = select i1 %13, ptr @.str.216, ptr %12
  %14 = tail call i64 @rb_locale_str_new_cstr(ptr noundef nonnull %spec.store.select.i9) #13
  %15 = getelementptr inbounds nuw i8, ptr %0, i64 8
  %16 = load ptr, ptr %15, align 8, !tbaa !31
  %17 = icmp eq ptr %16, null
  %spec.store.select.i10 = select i1 %17, ptr @.str.216, ptr %16
  %18 = tail call i64 @rb_str_new_cstr(ptr noundef nonnull %spec.store.select.i10) #13
  %19 = getelementptr inbounds nuw i8, ptr %0, i64 16
  %20 = load i32, ptr %19, align 8, !tbaa !32
  %21 = zext i32 %20 to i64
  %22 = shl nuw nsw i64 %21, 1
  %23 = or disjoint i64 %22, 1
  %24 = tail call i64 (i64, ...) @rb_struct_new(i64 noundef %11, i64 noundef %14, i64 noundef %18, i64 noundef %23, i64 noundef %2) #13
  ret i64 %24
}